target datalayout = "e-m:e-p270:32:32-p271:32:32-p272:64:64-i64:64-i128:128-f80:128-n8:16:32:64-S128"
target triple = "x86_64-pc-linux-gnu"

%struct._object = type { %union.anon, ptr }
%union.anon = type { i64 }
%struct.anon = type { i32, i32 }

@interp_list_all.kwlist = internal global [2 x ptr] [ptr @.str.42, ptr null], align 16
@.str.43 = private unnamed_addr constant [27 x i8] c"|$p:_interpreters.list_all\00", align 1

; Function Attrs: alwaysinline nounwind uwtable
define internal i32 @_Py_IsImmortal(ptr noundef %0) #4 {
  %2 = alloca ptr, align 8
  store ptr %0, ptr %2, align 8, !tbaa !3
  %3 = load ptr, ptr %2, align 8, !tbaa !3
  %4 = getelementptr inbounds nuw %struct._object, ptr %3, i32 0, i32 0
  %5 = getelementptr inbounds nuw %struct.anon, ptr %4, i32 0, i32 0
  %6 = load i32, ptr %5, align 8, !tbaa !38
  %7 = icmp slt i32 %6, 0
  %8 = zext i1 %7 to i32
  ret i32 %8
}

; Function Attrs: alwaysinline nounwind uwtable
define internal void @Py_DECREF(ptr noundef %0) #4 {
  %2 = alloca ptr, align 8
  store ptr %0, ptr %2, align 8, !tbaa !3
  %3 = load ptr, ptr %2, align 8, !tbaa !3
  %4 = call i32 @_Py_IsImmortal(ptr noundef %3)
  %5 = icmp ne i32 %4, 0
  br i1 %5, label %6, label %7

6:                                                ; preds = %1
  br label %16

7:                                                ; preds = %1
  %8 = load ptr, ptr %2, align 8, !tbaa !3
  %9 = getelementptr inbounds nuw %struct._object, ptr %8, i32 0, i32 0
  %10 = getelementptr inbounds nuw %struct.anon, ptr %9, i32 0, i32 0
  %11 = load i32, ptr %10, align 8, !tbaa !38
  %12 = add i32 %11, -1
  store i32 %12, ptr %10, align 8, !tbaa !38
  %13 = icmp eq i32 %12, 0
  br i1 %13, label %14, label %16

14:                                               ; preds = %7
  %15 = load ptr, ptr %2, align 8, !tbaa !3
  call void @_Py_Dealloc(ptr noundef %15)
  br label %16

16:                                               ; preds = %6, %14, %7
  ret void
}

; Function Attrs: nounwind uwtable
define internal ptr @interp_list_all(ptr noundef %0, ptr noundef %1, ptr noundef %2) #0 {
  %4 = alloca ptr, align 8
  %5 = alloca ptr, align 8
  %6 = alloca ptr, align 8
  %7 = alloca ptr, align 8
  %8 = alloca i32, align 4
  %9 = alloca i32, align 4
  %10 = alloca ptr, align 8
  %11 = alloca ptr, align 8
  %12 = alloca ptr, align 8
  %13 = alloca i32, align 4
  store ptr %0, ptr %5, align 8, !tbaa !3
  store ptr %1, ptr %6, align 8, !tbaa !3
  store ptr %2, ptr %7, align 8, !tbaa !3
  call void @llvm.lifetime.start.p0(i64 4, ptr %8) #8
  store i32 0, ptr %8, align 4, !tbaa !11
  %14 = load ptr, ptr %6, align 8, !tbaa !3
  %15 = load ptr, ptr %7, align 8, !tbaa !3
  %16 = call i32 (ptr, ptr, ptr, ptr, ...) @PyArg_ParseTupleAndKeywords(ptr noundef %14, ptr noundef %15, ptr noundef @.str.43, ptr noundef @interp_list_all.kwlist, ptr noundef %8)
  %17 = icmp ne i32 %16, 0
  br i1 %17, label %19, label %18

18:                                               ; preds = %3
  store ptr null, ptr %4, align 8
  store i32 1, ptr %9, align 4
  br label %64

19:                                               ; preds = %3
  call void @llvm.lifetime.start.p0(i64 8, ptr %10) #8
  %20 = call ptr @PyList_New(i64 noundef 0)
  store ptr %20, ptr %10, align 8, !tbaa !3
  %21 = load ptr, ptr %10, align 8, !tbaa !3
  %22 = icmp eq ptr %21, null
  br i1 %22, label %23, label %24

23:                                               ; preds = %19
  store ptr null, ptr %4, align 8
  store i32 1, ptr %9, align 4
  br label %63

24:                                               ; preds = %19
  call void @llvm.lifetime.start.p0(i64 8, ptr %11) #8
  %25 = call ptr @PyInterpreterState_Head()
  store ptr %25, ptr %11, align 8, !tbaa !15
  br label %26

26:                                               ; preds = %57, %24
  %27 = load ptr, ptr %11, align 8, !tbaa !15
  %28 = icmp ne ptr %27, null
  br i1 %28, label %29, label %60

29:                                               ; preds = %26
  %30 = load i32, ptr %8, align 4, !tbaa !11
  %31 = icmp ne i32 %30, 0
  br i1 %31, label %32, label %36

32:                                               ; preds = %29
  %33 = load ptr, ptr %11, align 8, !tbaa !15
  %34 = call i32 @_PyInterpreterState_IsReady(ptr noundef %33)
  %35 = icmp ne i32 %34, 0
  br i1 %35, label %36, label %57

36:                                               ; preds = %32, %29
  call void @llvm.lifetime.start.p0(i64 8, ptr %12) #8
  %37 = load ptr, ptr %11, align 8, !tbaa !15
  %38 = call ptr @get_summary(ptr noundef %37)
  store ptr %38, ptr %12, align 8, !tbaa !3
  %39 = load ptr, ptr %12, align 8, !tbaa !3
  %40 = icmp eq ptr %39, null
  br i1 %40, label %41, label %43

41:                                               ; preds = %36
  %42 = load ptr, ptr %10, align 8, !tbaa !3
  call void @Py_DECREF(ptr noundef %42)
  store ptr null, ptr %4, align 8
  store i32 1, ptr %9, align 4
  br label %54

43:                                               ; preds = %36
  call void @llvm.lifetime.start.p0(i64 4, ptr %13) #8
  %44 = load ptr, ptr %10, align 8, !tbaa !3
  %45 = load ptr, ptr %12, align 8, !tbaa !3
  %46 = call i32 @PyList_Insert(ptr noundef %44, i64 noundef 0, ptr noundef %45)
  store i32 %46, ptr %13, align 4, !tbaa !11
  %47 = load ptr, ptr %12, align 8, !tbaa !3
  call void @Py_DECREF(ptr noundef %47)
  %48 = load i32, ptr %13, align 4, !tbaa !11
  %49 = icmp slt i32 %48, 0
  br i1 %49, label %50, label %52

50:                                               ; preds = %43
  %51 = load ptr, ptr %10, align 8, !tbaa !3
  call void @Py_DECREF(ptr noundef %51)
  store ptr null, ptr %4, align 8
  store i32 1, ptr %9, align 4
  br label %53

52:                                               ; preds = %43
  store i32 0, ptr %9, align 4
  br label %53

53:                                               ; preds = %52, %50
  call void @llvm.lifetime.end.p0(i64 4, ptr %13) #8
  br label %54

54:                                               ; preds = %53, %41
  call void @llvm.lifetime.end.p0(i64 8, ptr %12) #8
  %55 = load i32, ptr %9, align 4
  switch i32 %55, label %62 [
    i32 0, label %56
  ]

56:                                               ; preds = %54
  br label %57

57:                                               ; preds = %56, %32
  %58 = load ptr, ptr %11, align 8, !tbaa !15
  %59 = call ptr @PyInterpreterState_Next(ptr noundef %58)
  store ptr %59, ptr %11, align 8, !tbaa !15
  br label %26, !llvm.loop !17

60:                                               ; preds = %26
  %61 = load ptr, ptr %10, align 8, !tbaa !3
  store ptr %61, ptr %4, align 8
  store i32 1, ptr %9, align 4
  br label %62

62:                                               ; preds = %60, %54
  call void @llvm.lifetime.end.p0(i64 8, ptr %11) #8
  br label %63

63:                                               ; preds = %62, %23
  call void @llvm.lifetime.end.p0(i64 8, ptr %10) #8
  br label %64

64:                                               ; preds = %63, %18
  call void @llvm.lifetime.end.p0(i64 4, ptr %8) #8
  %65 = load ptr, ptr %4, align 8
  ret ptr %65
}