; Function Attrs: nounwind uwtable
define internal ptr @interp_list_all(ptr readnone captures(none) %0, ptr noundef %1, ptr noundef %2) #0 {
  %4 = alloca i32, align 4
  call void @llvm.lifetime.start.p0(i64 4, ptr nonnull %4) #7
  store i32 0, ptr %4, align 4, !tbaa !14
  %5 = call i32 (ptr, ptr, ptr, ptr, ...) @PyArg_ParseTupleAndKeywords(ptr noundef %1, ptr noundef %2, ptr noundef nonnull @.str.43, ptr noundef nonnull @interp_list_all.kwlist, ptr noundef nonnull %4) #7
  %.not = icmp eq i32 %5, 0
  br i1 %.not, label %Py_DECREF.exit, label %6

6:                                                ; preds = %3
  %7 = call ptr @PyList_New(i64 noundef 0) #7
  %8 = icmp eq ptr %7, null
  br i1 %8, label %Py_DECREF.exit, label %9

9:                                                ; preds = %6
  %10 = call ptr @PyInterpreterState_Head() #7
  %.not2132 = icmp eq ptr %10, null
  br i1 %.not2132, label %Py_DECREF.exit, label %.lr.ph

.lr.ph:                                           ; preds = %9, %.critedge25
  %.01833 = phi ptr [ %34, %.critedge25 ], [ %10, %9 ]
  %11 = load i32, ptr %4, align 4, !tbaa !14
  %.not22 = icmp eq i32 %11, 0
  br i1 %.not22, label %14, label %12

12:                                               ; preds = %.lr.ph
  %13 = call i32 @_PyInterpreterState_IsReady(ptr noundef nonnull %.01833) #7
  %.not23 = icmp eq i32 %13, 0
  br i1 %.not23, label %.critedge25, label %14

14:                                               ; preds = %12, %.lr.ph
  %15 = call fastcc ptr @get_summary(ptr noundef nonnull %.01833)
  %16 = icmp eq ptr %15, null
  br i1 %16, label %.critedge, label %21

.critedge:                                        ; preds = %14
  %17 = load i32, ptr %7, align 8, !tbaa !11
  %.not.i = icmp sgt i32 %17, -1
  br i1 %.not.i, label %18, label %Py_DECREF.exit

18:                                               ; preds = %.critedge
  %19 = add nsw i32 %17, -1
  store i32 %19, ptr %7, align 8, !tbaa !11
  %20 = icmp eq i32 %19, 0
  br i1 %20, label %Py_DECREF.exit.sink.split, label %Py_DECREF.exit

21:                                               ; preds = %14
  %22 = call i32 @PyList_Insert(ptr noundef nonnull %7, i64 noundef 0, ptr noundef nonnull %15) #7
  %23 = load i32, ptr %15, align 8, !tbaa !11
  %.not.i26 = icmp sgt i32 %23, -1
  br i1 %.not.i26, label %24, label %Py_DECREF.exit27

24:                                               ; preds = %21
  %25 = add nsw i32 %23, -1
  store i32 %25, ptr %15, align 8, !tbaa !11
  %26 = icmp eq i32 %25, 0
  br i1 %26, label %27, label %Py_DECREF.exit27

27:                                               ; preds = %24
  call void @_Py_Dealloc(ptr noundef nonnull %15) #7
  br label %Py_DECREF.exit27

Py_DECREF.exit27:                                 ; preds = %21, %24, %27
  %28 = icmp sgt i32 %22, -1
  br i1 %28, label %.critedge25, label %29

29:                                               ; preds = %Py_DECREF.exit27
  %30 = load i32, ptr %7, align 8, !tbaa !11
  %.not.i28 = icmp sgt i32 %30, -1
  br i1 %.not.i28, label %31, label %Py_DECREF.exit

31:                                               ; preds = %29
  %32 = add nsw i32 %30, -1
  store i32 %32, ptr %7, align 8, !tbaa !11
  %33 = icmp eq i32 %32, 0
  br i1 %33, label %Py_DECREF.exit.sink.split, label %Py_DECREF.exit

.critedge25:                                      ; preds = %Py_DECREF.exit27, %12
  %34 = call ptr @PyInterpreterState_Next(ptr noundef nonnull %.01833) #7
  %.not21 = icmp eq ptr %34, null
  br i1 %.not21, label %Py_DECREF.exit, label %.lr.ph, !llvm.loop !32

Py_DECREF.exit.sink.split:                        ; preds = %31, %18
  call void @_Py_Dealloc(ptr noundef nonnull %7) #7
  br label %Py_DECREF.exit

Py_DECREF.exit:                                   ; preds = %.critedge25, %Py_DECREF.exit.sink.split, %9, %31, %29, %18, %.critedge, %6, %3
  %.0 = phi ptr [ null, %3 ], [ null, %6 ], [ null, %.critedge ], [ null, %18 ], [ null, %29 ], [ null, %31 ], [ %7, %9 ], [ null, %Py_DECREF.exit.sink.split ], [ %7, %.critedge25 ]
  call void @llvm.lifetime.end.p0(i64 4, ptr nonnull %4) #7
  ret ptr %.0
}